; Function Attrs: mustprogress uwtable
define hidden noundef zeroext i1 @_ZN10duckdb_re26Regexp10ParseState16ParseCCCharacterEPNS_11StringPieceEPiRKS2_PNS_12RegexpStatusE(ptr noundef nonnull readonly align 8 captures(none) dereferenceable(48) %0, ptr noundef captures(none) %1, ptr noundef %2, ptr noundef nonnull readonly align 8 captures(none) dereferenceable(16) %3, ptr noundef captures(address_is_null) %4) local_unnamed_addr #9 align 2 {
  %6 = getelementptr inbounds nuw i8, ptr %1, i64 8
  %7 = load i64, ptr %6, align 8, !tbaa !97
  %8 = icmp eq i64 %7, 0
  br i1 %8, label %9, label %11

9:                                                ; preds = %5
  store i32 5, ptr %4, align 8, !tbaa !58
  %10 = getelementptr inbounds nuw i8, ptr %4, i64 8
  tail call void @llvm.memcpy.p0.p0.i64(ptr noundef nonnull align 8 dereferenceable(16) %10, ptr noundef nonnull align 8 dereferenceable(16) %3, i64 16, i1 false), !tbaa.struct !16
  br label %_ZN10duckdb_re2L17StringPieceToRuneEPiPNS_11StringPieceEPNS_12RegexpStatusE.exit

11:                                               ; preds = %5
  %12 = load ptr, ptr %1, align 8, !tbaa !93
  %13 = load i8, ptr %12, align 1, !tbaa !27
  %14 = icmp eq i8 %13, 92
  br i1 %14, label %15, label %19

15:                                               ; preds = %11
  %16 = getelementptr inbounds nuw i8, ptr %0, i64 44
  %17 = load i32, ptr %16, align 4, !tbaa !22
  %18 = tail call fastcc noundef zeroext i1 @_ZN10duckdb_re2L11ParseEscapeEPNS_11StringPieceEPiPNS_12RegexpStatusEi(ptr noundef nonnull %1, ptr noundef %2, ptr noundef %4, i32 noundef %17)
  br label %_ZN10duckdb_re2L17StringPieceToRuneEPiPNS_11StringPieceEPNS_12RegexpStatusE.exit

19:                                               ; preds = %11
  %.sroa.speculated.i = tail call i64 @llvm.umin.i64(i64 %7, i64 4)
  %20 = trunc nuw nsw i64 %.sroa.speculated.i to i32
  %21 = tail call noundef i32 @_ZN10duckdb_re28fullruneEPKci(ptr noundef nonnull %12, i32 noundef %20)
  %.not.i = icmp eq i32 %21, 0
  br i1 %.not.i, label %.thread28.i, label %22

22:                                               ; preds = %19
  %23 = load ptr, ptr %1, align 8, !tbaa !93
  %24 = tail call noundef i32 @_ZN10duckdb_re210chartoruneEPiPKc(ptr noundef %2, ptr noundef %23)
  %25 = load i32, ptr %2, align 4, !tbaa !3
  %26 = icmp sgt i32 %25, 1114111
  br i1 %26, label %.thread26.i, label %27

.thread26.i:                                      ; preds = %22
  store i32 65533, ptr %2, align 4, !tbaa !3
  br label %.thread28.i

27:                                               ; preds = %22
  %28 = icmp eq i32 %24, 1
  %29 = icmp eq i32 %25, 65533
  %or.cond.i = and i1 %28, %29
  br i1 %or.cond.i, label %.thread28.i, label %30

30:                                               ; preds = %27
  %31 = sext i32 %24 to i64
  %32 = load ptr, ptr %1, align 8, !tbaa !93
  %33 = getelementptr inbounds nuw i8, ptr %32, i64 %31
  store ptr %33, ptr %1, align 8, !tbaa !93
  %34 = load i64, ptr %6, align 8, !tbaa !97
  %35 = sub i64 %34, %31
  store i64 %35, ptr %6, align 8, !tbaa !97
  %36 = icmp sgt i32 %24, -1
  br label %_ZN10duckdb_re2L17StringPieceToRuneEPiPNS_11StringPieceEPNS_12RegexpStatusE.exit

.thread28.i:                                      ; preds = %27, %.thread26.i, %19
  %.not18.i = icmp eq ptr %4, null
  br i1 %.not18.i, label %_ZN10duckdb_re2L17StringPieceToRuneEPiPNS_11StringPieceEPNS_12RegexpStatusE.exit, label %37

37:                                               ; preds = %.thread28.i
  store i32 13, ptr %4, align 8, !tbaa !58
  %38 = getelementptr inbounds nuw i8, ptr %4, i64 8
  tail call void @llvm.memset.p0.i64(ptr noundef nonnull align 8 dereferenceable(16) %38, i8 0, i64 16, i1 false)
  br label %_ZN10duckdb_re2L17StringPieceToRuneEPiPNS_11StringPieceEPNS_12RegexpStatusE.exit

_ZN10duckdb_re2L17StringPieceToRuneEPiPNS_11StringPieceEPNS_12RegexpStatusE.exit: ; preds = %37, %.thread28.i, %30, %15, %9
  %.0 = phi i1 [ false, %9 ], [ %18, %15 ], [ %36, %30 ], [ false, %37 ], [ false, %.thread28.i ]
  ret i1 %.0
}